target datalayout = "e-m:e-p270:32:32-p271:32:32-p272:64:64-i64:64-i128:128-f80:128-n8:16:32:64-S128"
target triple = "x86_64-pc-linux-gnu"

; Function Attrs: nounwind uwtable
define internal i32 @tls1_prf_P_hash(ptr noundef %0, ptr noundef %1, i64 noundef %2, ptr noundef %3, i64 noundef %4, ptr noundef %5, i64 noundef %6) #0 {
  %8 = alloca ptr, align 8
  %9 = alloca ptr, align 8
  %10 = alloca i64, align 8
  %11 = alloca ptr, align 8
  %12 = alloca i64, align 8
  %13 = alloca ptr, align 8
  %14 = alloca i64, align 8
  %15 = alloca i64, align 8
  %16 = alloca ptr, align 8
  %17 = alloca ptr, align 8
  %18 = alloca [64 x i8], align 16
  %19 = alloca i64, align 8
  %20 = alloca i32, align 4
  store ptr %0, ptr %8, align 8, !tbaa !33
  store ptr %1, ptr %9, align 8, !tbaa !18
  store i64 %2, ptr %10, align 8, !tbaa !19
  store ptr %3, ptr %11, align 8, !tbaa !18
  store i64 %4, ptr %12, align 8, !tbaa !19
  store ptr %5, ptr %13, align 8, !tbaa !18
  store i64 %6, ptr %14, align 8, !tbaa !19
  call void @llvm.lifetime.start.p0(i64 8, ptr %15) #8
  call void @llvm.lifetime.start.p0(i64 8, ptr %16) #8
  store ptr null, ptr %16, align 8, !tbaa !33
  call void @llvm.lifetime.start.p0(i64 8, ptr %17) #8
  store ptr null, ptr %17, align 8, !tbaa !33
  call void @llvm.lifetime.start.p0(i64 64, ptr %18) #8
  call void @llvm.lifetime.start.p0(i64 8, ptr %19) #8
  call void @llvm.lifetime.start.p0(i64 4, ptr %20) #8
  store i32 0, ptr %20, align 4, !tbaa !30
  %21 = load ptr, ptr %8, align 8, !tbaa !33
  %22 = load ptr, ptr %9, align 8, !tbaa !18
  %23 = load i64, ptr %10, align 8, !tbaa !19
  %24 = call i32 @EVP_MAC_init(ptr noundef %21, ptr noundef %22, i64 noundef %23, ptr noundef null)
  %25 = icmp ne i32 %24, 0
  br i1 %25, label %27, label %26

26:                                               ; preds = %7
  br label %121

27:                                               ; preds = %7
  %28 = load ptr, ptr %8, align 8, !tbaa !33
  %29 = call i64 @EVP_MAC_CTX_get_mac_size(ptr noundef %28)
  store i64 %29, ptr %15, align 8, !tbaa !19
  %30 = load i64, ptr %15, align 8, !tbaa !19
  %31 = icmp eq i64 %30, 0
  br i1 %31, label %32, label %33

32:                                               ; preds = %27
  br label %121

33:                                               ; preds = %27
  %34 = load ptr, ptr %8, align 8, !tbaa !33
  %35 = call ptr @EVP_MAC_CTX_dup(ptr noundef %34)
  store ptr %35, ptr %17, align 8, !tbaa !33
  %36 = load ptr, ptr %17, align 8, !tbaa !33
  %37 = icmp eq ptr %36, null
  br i1 %37, label %38, label %39

38:                                               ; preds = %33
  br label %121

39:                                               ; preds = %33
  %40 = load ptr, ptr %11, align 8, !tbaa !18
  %41 = icmp ne ptr %40, null
  br i1 %41, label %42, label %49

42:                                               ; preds = %39
  %43 = load ptr, ptr %17, align 8, !tbaa !33
  %44 = load ptr, ptr %11, align 8, !tbaa !18
  %45 = load i64, ptr %12, align 8, !tbaa !19
  %46 = call i32 @EVP_MAC_update(ptr noundef %43, ptr noundef %44, i64 noundef %45)
  %47 = icmp ne i32 %46, 0
  br i1 %47, label %49, label %48

48:                                               ; preds = %42
  br label %121

49:                                               ; preds = %42, %39
  br label %50

50:                                               ; preds = %112, %49
  %51 = load ptr, ptr %17, align 8, !tbaa !33
  %52 = getelementptr inbounds [64 x i8], ptr %18, i64 0, i64 0
  %53 = call i32 @EVP_MAC_final(ptr noundef %51, ptr noundef %52, ptr noundef %19, i64 noundef 64)
  %54 = icmp ne i32 %53, 0
  br i1 %54, label %56, label %55

55:                                               ; preds = %50
  br label %121

56:                                               ; preds = %50
  %57 = load ptr, ptr %17, align 8, !tbaa !33
  call void @EVP_MAC_CTX_free(ptr noundef %57)
  store ptr null, ptr %17, align 8, !tbaa !33
  %58 = load ptr, ptr %8, align 8, !tbaa !33
  %59 = call ptr @EVP_MAC_CTX_dup(ptr noundef %58)
  store ptr %59, ptr %16, align 8, !tbaa !33
  %60 = load ptr, ptr %16, align 8, !tbaa !33
  %61 = icmp eq ptr %60, null
  br i1 %61, label %62, label %63

62:                                               ; preds = %56
  br label %121

63:                                               ; preds = %56
  %64 = load ptr, ptr %16, align 8, !tbaa !33
  %65 = getelementptr inbounds [64 x i8], ptr %18, i64 0, i64 0
  %66 = load i64, ptr %19, align 8, !tbaa !19
  %67 = call i32 @EVP_MAC_update(ptr noundef %64, ptr noundef %65, i64 noundef %66)
  %68 = icmp ne i32 %67, 0
  br i1 %68, label %70, label %69

69:                                               ; preds = %63
  br label %121

70:                                               ; preds = %63
  %71 = load i64, ptr %14, align 8, !tbaa !19
  %72 = load i64, ptr %15, align 8, !tbaa !19
  %73 = icmp ugt i64 %71, %72
  br i1 %73, label %74, label %81

74:                                               ; preds = %70
  %75 = load ptr, ptr %16, align 8, !tbaa !33
  %76 = call ptr @EVP_MAC_CTX_dup(ptr noundef %75)
  store ptr %76, ptr %17, align 8, !tbaa !33
  %77 = load ptr, ptr %17, align 8, !tbaa !33
  %78 = icmp eq ptr %77, null
  br i1 %78, label %79, label %80

79:                                               ; preds = %74
  br label %121

80:                                               ; preds = %74
  br label %81

81:                                               ; preds = %80, %70
  %82 = load ptr, ptr %11, align 8, !tbaa !18
  %83 = icmp ne ptr %82, null
  br i1 %83, label %84, label %91

84:                                               ; preds = %81
  %85 = load ptr, ptr %16, align 8, !tbaa !33
  %86 = load ptr, ptr %11, align 8, !tbaa !18
  %87 = load i64, ptr %12, align 8, !tbaa !19
  %88 = call i32 @EVP_MAC_update(ptr noundef %85, ptr noundef %86, i64 noundef %87)
  %89 = icmp ne i32 %88, 0
  br i1 %89, label %91, label %90

90:                                               ; preds = %84
  br label %121

91:                                               ; preds = %84, %81
  %92 = load i64, ptr %14, align 8, !tbaa !19
  %93 = load i64, ptr %15, align 8, !tbaa !19
  %94 = icmp ule i64 %92, %93
  br i1 %94, label %95, label %105

95:                                               ; preds = %91
  %96 = load ptr, ptr %16, align 8, !tbaa !33
  %97 = getelementptr inbounds [64 x i8], ptr %18, i64 0, i64 0
  %98 = call i32 @EVP_MAC_final(ptr noundef %96, ptr noundef %97, ptr noundef %19, i64 noundef 64)
  %99 = icmp ne i32 %98, 0
  br i1 %99, label %101, label %100

100:                                              ; preds = %95
  br label %121

101:                                              ; preds = %95
  %102 = load ptr, ptr %13, align 8, !tbaa !18
  %103 = getelementptr inbounds [64 x i8], ptr %18, i64 0, i64 0
  %104 = load i64, ptr %14, align 8, !tbaa !19
  call void @llvm.memcpy.p0.p0.i64(ptr align 1 %102, ptr align 16 %103, i64 %104, i1 false)
  br label %120

105:                                              ; preds = %91
  %106 = load ptr, ptr %16, align 8, !tbaa !33
  %107 = load ptr, ptr %13, align 8, !tbaa !18
  %108 = load i64, ptr %14, align 8, !tbaa !19
  %109 = call i32 @EVP_MAC_final(ptr noundef %106, ptr noundef %107, ptr noundef null, i64 noundef %108)
  %110 = icmp ne i32 %109, 0
  br i1 %110, label %112, label %111

111:                                              ; preds = %105
  br label %121

112:                                              ; preds = %105
  %113 = load ptr, ptr %16, align 8, !tbaa !33
  call void @EVP_MAC_CTX_free(ptr noundef %113)
  store ptr null, ptr %16, align 8, !tbaa !33
  %114 = load i64, ptr %15, align 8, !tbaa !19
  %115 = load ptr, ptr %13, align 8, !tbaa !18
  %116 = getelementptr inbounds nuw i8, ptr %115, i64 %114
  store ptr %116, ptr %13, align 8, !tbaa !18
  %117 = load i64, ptr %15, align 8, !tbaa !19
  %118 = load i64, ptr %14, align 8, !tbaa !19
  %119 = sub i64 %118, %117
  store i64 %119, ptr %14, align 8, !tbaa !19
  br label %50

120:                                              ; preds = %101
  store i32 1, ptr %20, align 4, !tbaa !30
  br label %121

121:                                              ; preds = %120, %111, %100, %90, %79, %69, %62, %55, %48, %38, %32, %26
  %122 = load ptr, ptr %16, align 8, !tbaa !33
  call void @EVP_MAC_CTX_free(ptr noundef %122)
  %123 = load ptr, ptr %17, align 8, !tbaa !33
  call void @EVP_MAC_CTX_free(ptr noundef %123)
  %124 = getelementptr inbounds [64 x i8], ptr %18, i64 0, i64 0
  call void @OPENSSL_cleanse(ptr noundef %124, i64 noundef 64)
  %125 = load i32, ptr %20, align 4, !tbaa !30
  call void @llvm.lifetime.end.p0(i64 4, ptr %20) #8
  call void @llvm.lifetime.end.p0(i64 8, ptr %19) #8
  call void @llvm.lifetime.end.p0(i64 64, ptr %18) #8
  call void @llvm.lifetime.end.p0(i64 8, ptr %17) #8
  call void @llvm.lifetime.end.p0(i64 8, ptr %16) #8
  call void @llvm.lifetime.end.p0(i64 8, ptr %15) #8
  ret i32 %125
}