; Function Attrs: nounwind uwtable
define internal fastcc range(i32 0, 2) i32 @tls1_prf_P_hash(ptr noundef nonnull %0, ptr noundef nonnull %1, i64 noundef %2, ptr noundef %3, i64 noundef range(i64 1, 0) %4, ptr noundef %5, i64 noundef range(i64 1, 0) %6) unnamed_addr #0 {
  %8 = alloca [64 x i8], align 16
  %9 = alloca i64, align 8
  call void @llvm.lifetime.start.p0(i64 64, ptr nonnull %8) #7
  call void @llvm.lifetime.start.p0(i64 8, ptr nonnull %9) #7
  %10 = tail call i32 @EVP_MAC_init(ptr noundef nonnull %0, ptr noundef nonnull %1, i64 noundef %2, ptr noundef null) #7
  %.not = icmp eq i32 %10, 0
  br i1 %.not, label %.loopexit, label %11

11:                                               ; preds = %7
  %12 = tail call i64 @EVP_MAC_CTX_get_mac_size(ptr noundef nonnull %0) #7
  %13 = icmp eq i64 %12, 0
  br i1 %13, label %.loopexit, label %14

14:                                               ; preds = %11
  %15 = tail call ptr @EVP_MAC_CTX_dup(ptr noundef nonnull %0) #7
  %16 = icmp eq ptr %15, null
  br i1 %16, label %.loopexit, label %17

17:                                               ; preds = %14
  %.not53 = icmp eq ptr %3, null
  br i1 %.not53, label %20, label %18

18:                                               ; preds = %17
  %19 = tail call i32 @EVP_MAC_update(ptr noundef nonnull %15, ptr noundef nonnull %3, i64 noundef %4) #7
  %.not54 = icmp eq i32 %19, 0
  br i1 %.not54, label %.loopexit, label %.thread

20:                                               ; preds = %17
  %21 = call i32 @EVP_MAC_final(ptr noundef nonnull %15, ptr noundef nonnull %8, ptr noundef nonnull %9, i64 noundef 64) #7
  %.not5563 = icmp eq i32 %21, 0
  br i1 %.not5563, label %.loopexit, label %.lr.ph.split.us

.thread:                                          ; preds = %18
  %22 = call i32 @EVP_MAC_final(ptr noundef nonnull %15, ptr noundef nonnull %8, ptr noundef nonnull %9, i64 noundef 64) #7
  %.not5563106 = icmp eq i32 %22, 0
  br i1 %.not5563106, label %.loopexit, label %.lr.ph.split

.lr.ph.split.us:                                  ; preds = %20, %35
  %.166.us = phi ptr [ %31, %35 ], [ %15, %20 ]
  %.04265.us = phi ptr [ %36, %35 ], [ %5, %20 ]
  %.04364.us = phi i64 [ %37, %35 ], [ %6, %20 ]
  call void @EVP_MAC_CTX_free(ptr noundef nonnull %.166.us) #7
  %23 = call ptr @EVP_MAC_CTX_dup(ptr noundef nonnull %0) #7
  %24 = icmp eq ptr %23, null
  br i1 %24, label %.loopexit, label %25

25:                                               ; preds = %.lr.ph.split.us
  %26 = load i64, ptr %9, align 8, !tbaa !26
  %27 = call i32 @EVP_MAC_update(ptr noundef nonnull %23, ptr noundef nonnull %8, i64 noundef %26) #7
  %.not56.us = icmp eq i32 %27, 0
  br i1 %.not56.us, label %.loopexit, label %28

28:                                               ; preds = %25
  %29 = icmp ugt i64 %.04364.us, %12
  br i1 %29, label %30, label %.split.us

30:                                               ; preds = %28
  %31 = call ptr @EVP_MAC_CTX_dup(ptr noundef nonnull %23) #7
  %32 = icmp eq ptr %31, null
  br i1 %32, label %.loopexit, label %33

33:                                               ; preds = %30
  %34 = call i32 @EVP_MAC_final(ptr noundef nonnull %23, ptr noundef %.04265.us, ptr noundef null, i64 noundef %.04364.us) #7
  %.not59.us = icmp eq i32 %34, 0
  br i1 %.not59.us, label %.loopexit, label %35

35:                                               ; preds = %33
  call void @EVP_MAC_CTX_free(ptr noundef nonnull %23) #7
  %36 = getelementptr inbounds nuw i8, ptr %.04265.us, i64 %12
  %37 = sub i64 %.04364.us, %12
  %38 = call i32 @EVP_MAC_final(ptr noundef nonnull %31, ptr noundef nonnull %8, ptr noundef nonnull %9, i64 noundef 64) #7
  %.not55.us = icmp eq i32 %38, 0
  br i1 %.not55.us, label %.loopexit, label %.lr.ph.split.us

.lr.ph.split:                                     ; preds = %.thread, %56
  %.166 = phi ptr [ %47, %56 ], [ %15, %.thread ]
  %.04265 = phi ptr [ %57, %56 ], [ %5, %.thread ]
  %.04364 = phi i64 [ %58, %56 ], [ %6, %.thread ]
  call void @EVP_MAC_CTX_free(ptr noundef nonnull %.166) #7
  %39 = call ptr @EVP_MAC_CTX_dup(ptr noundef nonnull %0) #7
  %40 = icmp eq ptr %39, null
  br i1 %40, label %.loopexit, label %41

41:                                               ; preds = %.lr.ph.split
  %42 = load i64, ptr %9, align 8, !tbaa !26
  %43 = call i32 @EVP_MAC_update(ptr noundef nonnull %39, ptr noundef nonnull %8, i64 noundef %42) #7
  %.not56 = icmp eq i32 %43, 0
  br i1 %.not56, label %.loopexit, label %44

44:                                               ; preds = %41
  %45 = icmp ugt i64 %.04364, %12
  br i1 %45, label %46, label %.thread110

46:                                               ; preds = %44
  %47 = call ptr @EVP_MAC_CTX_dup(ptr noundef nonnull %39) #7
  %48 = icmp eq ptr %47, null
  br i1 %48, label %.loopexit, label %49

49:                                               ; preds = %46
  %50 = call i32 @EVP_MAC_update(ptr noundef nonnull %39, ptr noundef nonnull %3, i64 noundef %4) #7
  %.not57 = icmp eq i32 %50, 0
  br i1 %.not57, label %.loopexit, label %54

.thread110:                                       ; preds = %44
  %51 = call i32 @EVP_MAC_update(ptr noundef nonnull %39, ptr noundef nonnull %3, i64 noundef %4) #7
  %.not57112 = icmp eq i32 %51, 0
  br i1 %.not57112, label %.loopexit, label %.split.us

.split.us:                                        ; preds = %28, %.thread110
  %.us-phi88 = phi i64 [ %.04364, %.thread110 ], [ %.04364.us, %28 ]
  %.us-phi89 = phi ptr [ %.04265, %.thread110 ], [ %.04265.us, %28 ]
  %.us-phi91 = phi ptr [ %39, %.thread110 ], [ %23, %28 ]
  %52 = call i32 @EVP_MAC_final(ptr noundef nonnull %.us-phi91, ptr noundef nonnull %8, ptr noundef nonnull %9, i64 noundef 64) #7
  %.not60 = icmp eq i32 %52, 0
  br i1 %.not60, label %.loopexit, label %53

53:                                               ; preds = %.split.us
  call void @llvm.memcpy.p0.p0.i64(ptr align 1 %.us-phi89, ptr nonnull align 16 %8, i64 %.us-phi88, i1 false)
  br label %.loopexit

54:                                               ; preds = %49
  %55 = call i32 @EVP_MAC_final(ptr noundef nonnull %39, ptr noundef %.04265, ptr noundef null, i64 noundef %.04364) #7
  %.not59 = icmp eq i32 %55, 0
  br i1 %.not59, label %.loopexit, label %56

56:                                               ; preds = %54
  call void @EVP_MAC_CTX_free(ptr noundef nonnull %39) #7
  %57 = getelementptr inbounds nuw i8, ptr %.04265, i64 %12
  %58 = sub i64 %.04364, %12
  %59 = call i32 @EVP_MAC_final(ptr noundef nonnull %47, ptr noundef nonnull %8, ptr noundef nonnull %9, i64 noundef 64) #7
  %.not55 = icmp eq i32 %59, 0
  br i1 %.not55, label %.loopexit, label %.lr.ph.split

.loopexit:                                        ; preds = %56, %.lr.ph.split, %41, %46, %49, %54, %35, %.lr.ph.split.us, %25, %30, %33, %.thread110, %.thread, %20, %.split.us, %18, %14, %11, %7, %53
  %.040 = phi ptr [ null, %11 ], [ null, %14 ], [ %.us-phi91, %53 ], [ %.us-phi91, %.split.us ], [ null, %18 ], [ null, %7 ], [ null, %20 ], [ null, %.thread ], [ %39, %.thread110 ], [ null, %35 ], [ null, %.lr.ph.split.us ], [ %23, %25 ], [ %23, %30 ], [ %23, %33 ], [ null, %56 ], [ null, %.lr.ph.split ], [ %39, %41 ], [ %39, %46 ], [ %39, %49 ], [ %39, %54 ]
  %.039 = phi ptr [ null, %11 ], [ null, %14 ], [ null, %53 ], [ null, %.split.us ], [ %15, %18 ], [ null, %7 ], [ %15, %20 ], [ %15, %.thread ], [ null, %.thread110 ], [ %31, %35 ], [ null, %.lr.ph.split.us ], [ null, %25 ], [ null, %30 ], [ %31, %33 ], [ %47, %56 ], [ null, %.lr.ph.split ], [ null, %41 ], [ null, %46 ], [ %47, %49 ], [ %47, %54 ]
  %.0 = phi i32 [ 0, %11 ], [ 0, %14 ], [ 1, %53 ], [ 0, %.split.us ], [ 0, %18 ], [ 0, %7 ], [ 0, %20 ], [ 0, %.thread ], [ 0, %.thread110 ], [ 0, %33 ], [ 0, %30 ], [ 0, %25 ], [ 0, %.lr.ph.split.us ], [ 0, %35 ], [ 0, %54 ], [ 0, %49 ], [ 0, %46 ], [ 0, %41 ], [ 0, %.lr.ph.split ], [ 0, %56 ]
  call void @EVP_MAC_CTX_free(ptr noundef %.040) #7
  call void @EVP_MAC_CTX_free(ptr noundef %.039) #7
  call void @OPENSSL_cleanse(ptr noundef nonnull %8, i64 noundef 64) #7
  call void @llvm.lifetime.end.p0(i64 8, ptr nonnull %9) #7
  call void @llvm.lifetime.end.p0(i64 64, ptr nonnull %8) #7
  ret i32 %.0
}